; ModuleID = 'source-C-CXX/42/1714.c'
source_filename = "source-C-CXX/42/1714.c"
target datalayout = "e-m:e-p270:32:32-p271:32:32-p272:64:64-i64:64-f80:128-n8:16:32:64-S128"
target triple = "x86_64-pc-linux-gnu"

@.str = private unnamed_addr constant [3 x i8] c"%d\00", align 1
@.str.1 = private unnamed_addr constant [7 x i8] c"%d %d\0A\00", align 1

; Function Attrs: nofree norecurse nosync nounwind readnone sspstrong uwtable
define dso_local i32 @sushu(i32 %0) local_unnamed_addr #0 {
  %2 = icmp sgt i32 %0, 2
  br i1 %2, label %3, label %16

3:                                                ; preds = %1
  %4 = and i32 %0, 1
  %5 = icmp eq i32 %4, 0
  br i1 %5, label %16, label %6

6:                                                ; preds = %3, %9
  %7 = phi i32 [ %12, %9 ], [ 3, %3 ]
  %8 = icmp eq i32 %7, %0
  br i1 %8, label %13, label %9, !llvm.loop !5

9:                                                ; preds = %6
  %10 = srem i32 %0, %7
  %11 = icmp eq i32 %10, 0
  %12 = add nuw nsw i32 %7, 1
  br i1 %11, label %13, label %6, !llvm.loop !5

13:                                               ; preds = %6, %9
  %14 = icmp sge i32 %7, %0
  %15 = zext i1 %14 to i32
  br label %16

16:                                               ; preds = %13, %3, %1
  %17 = phi i32 [ 1, %1 ], [ 0, %3 ], [ %15, %13 ]
  ret i32 %17
}

; Function Attrs: argmemonly mustprogress nofree nosync nounwind willreturn
declare void @llvm.lifetime.start.p0i8(i64 immarg, i8* nocapture) #1

; Function Attrs: argmemonly mustprogress nofree nosync nounwind willreturn
declare void @llvm.lifetime.end.p0i8(i64 immarg, i8* nocapture) #1

; Function Attrs: nofree nounwind sspstrong uwtable
define dso_local void @main() local_unnamed_addr #2 {
  %1 = alloca i32, align 4
  %2 = bitcast i32* %1 to i8*
  call void @llvm.lifetime.start.p0i8(i64 4, i8* nonnull %2) #4
  %3 = call i32 (i8*, ...) @__isoc99_scanf(i8* getelementptr inbounds ([3 x i8], [3 x i8]* @.str, i64 0, i64 0), i32* nonnull %1)
  %4 = load i32, i32* %1, align 4, !tbaa !7
  %5 = icmp slt i32 %4, 4
  br i1 %5, label %46, label %6

6:                                                ; preds = %0
  %7 = lshr i32 %4, 1
  br label %8

8:                                                ; preds = %43, %6
  %9 = phi i32 [ %45, %43 ], [ %4, %6 ]
  %10 = phi i32 [ %44, %43 ], [ 2, %6 ]
  %11 = sub nsw i32 %9, %10
  %12 = icmp ugt i32 %10, 2
  br i1 %12, label %13, label %25

13:                                               ; preds = %8
  %14 = and i32 %10, 1
  %15 = icmp eq i32 %14, 0
  br i1 %15, label %41, label %16

16:                                               ; preds = %13, %19
  %17 = phi i32 [ %22, %19 ], [ 3, %13 ]
  %18 = icmp eq i32 %17, %10
  br i1 %18, label %23, label %19, !llvm.loop !5

19:                                               ; preds = %16
  %20 = urem i32 %10, %17
  %21 = icmp eq i32 %20, 0
  %22 = add nuw nsw i32 %17, 1
  br i1 %21, label %23, label %16, !llvm.loop !5

23:                                               ; preds = %19, %16
  %24 = icmp ult i32 %17, %10
  br i1 %24, label %41, label %25

25:                                               ; preds = %8, %23
  %26 = icmp sgt i32 %11, 2
  br i1 %26, label %27, label %39

27:                                               ; preds = %25
  %28 = and i32 %11, 1
  %29 = icmp eq i32 %28, 0
  br i1 %29, label %41, label %30

30:                                               ; preds = %27, %33
  %31 = phi i32 [ %36, %33 ], [ 3, %27 ]
  %32 = icmp eq i32 %31, %11
  br i1 %32, label %37, label %33, !llvm.loop !5

33:                                               ; preds = %30
  %34 = srem i32 %11, %31
  %35 = icmp eq i32 %34, 0
  %36 = add nuw nsw i32 %31, 1
  br i1 %35, label %37, label %30, !llvm.loop !5

37:                                               ; preds = %33, %30
  %38 = icmp slt i32 %31, %11
  br i1 %38, label %41, label %39

39:                                               ; preds = %25, %37
  %40 = call i32 (i8*, ...) @printf(i8* nonnull dereferenceable(1) getelementptr inbounds ([7 x i8], [7 x i8]* @.str.1, i64 0, i64 0), i32 %10, i32 %11)
  br label %41

41:                                               ; preds = %13, %27, %23, %37, %39
  %42 = icmp eq i32 %10, %7
  br i1 %42, label %46, label %43, !llvm.loop !11

43:                                               ; preds = %41
  %44 = add nuw nsw i32 %10, 1
  %45 = load i32, i32* %1, align 4, !tbaa !7
  br label %8

46:                                               ; preds = %41, %0
  call void @llvm.lifetime.end.p0i8(i64 4, i8* nonnull %2) #4
  ret void
}

; Function Attrs: nofree nounwind
declare noundef i32 @__isoc99_scanf(i8* nocapture noundef readonly, ...) local_unnamed_addr #3

; Function Attrs: nofree nounwind
declare noundef i32 @printf(i8* nocapture noundef readonly, ...) local_unnamed_addr #3


!llvm.module.flags = !{!0, !1, !2, !3}
!llvm.ident = !{!4}

!0 = !{i32 1, !"wchar_size", i32 4}
!1 = !{i32 7, !"PIC Level", i32 2}
!2 = !{i32 7, !"PIE Level", i32 2}
!3 = !{i32 7, !"uwtable", i32 1}
!4 = !{!"clang version 13.0.0"}
!5 = distinct !{!5, !6}
!6 = !{!"llvm.loop.mustprogress"}
!7 = !{!8, !8, i64 0}
!8 = !{!"int", !9, i64 0}
!9 = !{!"omnipotent char", !10, i64 0}
!10 = !{!"Simple C/C++ TBAA"}
!11 = distinct !{!11, !6}
